; Function Attrs: nounwind uwtable
define internal void @PredictorSub5_SSE2(ptr noundef %0, ptr noundef %1, i32 noundef %2, ptr noalias noundef %3) #1 {
  %.not39 = icmp slt i32 %2, 4
  br i1 %.not39, label %._crit_edge, label %.lr.ph.preheader

.lr.ph.preheader:                                 ; preds = %4
  %5 = zext nneg i32 %2 to i64
  br label %.lr.ph

.lr.ph:                                           ; preds = %.lr.ph.preheader, %.lr.ph
  %indvars.iv41 = phi i64 [ 0, %.lr.ph.preheader ], [ %indvars.iv.next42, %.lr.ph ]
  %indvars.iv = phi i64 [ 4, %.lr.ph.preheader ], [ %indvars.iv.next, %.lr.ph ]
  %6 = getelementptr i32, ptr %0, i64 %indvars.iv41
  %7 = getelementptr i8, ptr %6, i64 -4
  %8 = load <2 x i64>, ptr %7, align 1, !tbaa !7
  %9 = getelementptr inbounds nuw i32, ptr %1, i64 %indvars.iv41
  %10 = load <16 x i8>, ptr %9, align 1, !tbaa !7
  %11 = or disjoint i64 %indvars.iv41, 1
  %12 = getelementptr inbounds nuw i32, ptr %1, i64 %11
  %13 = load <2 x i64>, ptr %12, align 1, !tbaa !7
  %14 = load <16 x i8>, ptr %6, align 1, !tbaa !7
  %15 = bitcast <2 x i64> %8 to <16 x i8>
  %16 = bitcast <2 x i64> %13 to <16 x i8>
  %17 = tail call <16 x i8> @llvm.x86.sse2.pavg.b(<16 x i8> %15, <16 x i8> %16)
  %18 = xor <2 x i64> %13, %8
  %19 = bitcast <2 x i64> %18 to <16 x i8>
  %20 = and <16 x i8> %19, splat (i8 1)
  %21 = sub <16 x i8> %17, %20
  %22 = tail call <16 x i8> @llvm.x86.sse2.pavg.b(<16 x i8> %21, <16 x i8> %10)
  %23 = xor <16 x i8> %21, %10
  %24 = and <16 x i8> %23, splat (i8 1)
  %.neg = sub <16 x i8> %14, %22
  %25 = add <16 x i8> %.neg, %24
  %26 = getelementptr inbounds nuw i32, ptr %3, i64 %indvars.iv41
  store <16 x i8> %25, ptr %26, align 1, !tbaa !7
  %indvars.iv.next = add nuw nsw i64 %indvars.iv, 4
  %.not = icmp samesign ugt i64 %indvars.iv.next, %5
  %indvars.iv.next42 = add nuw nsw i64 %indvars.iv41, 4
  br i1 %.not, label %._crit_edge.loopexit, label %.lr.ph, !llvm.loop !42

._crit_edge.loopexit:                             ; preds = %.lr.ph
  %27 = trunc nuw nsw i64 %indvars.iv to i32
  br label %._crit_edge

._crit_edge:                                      ; preds = %._crit_edge.loopexit, %4
  %.0.lcssa = phi i32 [ 0, %4 ], [ %27, %._crit_edge.loopexit ]
  %.not26 = icmp eq i32 %.0.lcssa, %2
  br i1 %.not26, label %35, label %28

28:                                               ; preds = %._crit_edge
  %29 = load ptr, ptr getelementptr inbounds nuw (i8, ptr @VP8LPredictorsSub_C, i64 40), align 8, !tbaa !3
  %30 = zext nneg i32 %.0.lcssa to i64
  %31 = getelementptr inbounds nuw i32, ptr %0, i64 %30
  %32 = getelementptr inbounds nuw i32, ptr %1, i64 %30
  %33 = sub nsw i32 %2, %.0.lcssa
  %34 = getelementptr inbounds nuw i32, ptr %3, i64 %30
  tail call void %29(ptr noundef %31, ptr noundef %32, i32 noundef %33, ptr noundef %34) #8
  br label %35

35:                                               ; preds = %28, %._crit_edge
  ret void
}